target datalayout = "e-m:e-p270:32:32-p271:32:32-p272:64:64-i64:64-i128:128-f80:128-n8:16:32:64-S128"
target triple = "x86_64-pc-linux-gnu"

%struct.XLogCtlData = type { %struct.XLogCtlInsert, %struct.XLogwrtRqst, i64, %struct.FullTransactionId, i64, i64, i64, %struct.pg_atomic_uint64, i64, i64, %struct.pg_atomic_uint64, %struct.pg_atomic_uint64, %struct.pg_atomic_uint64, i64, ptr, ptr, i32, i32, i32, i32, i8, i8, i64, i64, %struct.CheckPoint, i64, i8 }
%struct.XLogCtlInsert = type { i8, i64, i64, [128 x i8], i64, i8, i32, i64, ptr }
%struct.XLogwrtRqst = type { i64, i64 }
%struct.FullTransactionId = type { i64 }
%struct.pg_atomic_uint64 = type { i64 }
%struct.CheckPoint = type { i64, i32, i32, i8, i32, %struct.FullTransactionId, i32, i32, i32, i32, i32, i32, i32, i64, i32, i32, i32 }

@XLogArchiveMode = dso_local global i32 0, align 4
@XLogCtl = internal global ptr null, align 8
@.str.14 = private unnamed_addr constant [7 x i8] c"xlog.c\00", align 1
@AuxProcessResourceOwner = external global ptr, align 8
@CurrentResourceOwner = external global ptr, align 8
@IsPostmasterEnvironment = external global i8, align 1
@LocalRecoveryInProgress = internal global i8 1, align 1
@.str.59 = private unnamed_addr constant [14 x i8] c"shutting down\00", align 1
@__func__.ShutdownXLOG = private unnamed_addr constant [13 x i8] c"ShutdownXLOG\00", align 1

; Function Attrs: nounwind uwtable
define dso_local i64 @RequestXLogSwitch(i1 noundef zeroext %0) #0 {
  %2 = alloca i8, align 1
  %3 = alloca i64, align 8
  %4 = zext i1 %0 to i8
  store i8 %4, ptr %2, align 1
  call void @llvm.lifetime.start.p0(i64 8, ptr %3) #16
  call void @XLogBeginInsert()
  %5 = load i8, ptr %2, align 1, !range !4, !noundef !5
  %6 = trunc i8 %5 to i1
  br i1 %6, label %7, label %8

7:                                                ; preds = %1
  call void @XLogSetRecordFlags(i8 noundef zeroext 2)
  br label %8

8:                                                ; preds = %7, %1
  %9 = call i64 @XLogInsert(i8 noundef zeroext 0, i8 noundef zeroext 64)
  store i64 %9, ptr %3, align 8
  %10 = load i64, ptr %3, align 8
  call void @llvm.lifetime.end.p0(i64 8, ptr %3) #16
  ret i64 %10
}

; Function Attrs: nounwind uwtable
define dso_local zeroext i1 @RecoveryInProgress() #0 {
  %1 = alloca i1, align 1
  %2 = alloca ptr, align 8
  %3 = load i8, ptr @LocalRecoveryInProgress, align 1, !range !4, !noundef !5
  %4 = trunc i8 %3 to i1
  br i1 %4, label %6, label %5

5:                                                ; preds = %0
  store i1 false, ptr %1, align 1
  br label %15

6:                                                ; preds = %0
  call void @llvm.lifetime.start.p0(i64 8, ptr %2) #16
  %7 = load ptr, ptr @XLogCtl, align 8
  store ptr %7, ptr %2, align 8
  %8 = load ptr, ptr %2, align 8
  %9 = getelementptr inbounds nuw %struct.XLogCtlData, ptr %8, i32 0, i32 19
  %10 = load volatile i32, ptr %9, align 4
  %11 = icmp ne i32 %10, 2
  %12 = zext i1 %11 to i8
  store i8 %12, ptr @LocalRecoveryInProgress, align 1
  %13 = load i8, ptr @LocalRecoveryInProgress, align 1, !range !4, !noundef !5
  %14 = trunc i8 %13 to i1
  store i1 %14, ptr %1, align 1
  call void @llvm.lifetime.end.p0(i64 8, ptr %2) #16
  br label %15

15:                                               ; preds = %6, %5
  %16 = load i1, ptr %1, align 1
  ret i1 %16
}

; Function Attrs: nounwind uwtable
define dso_local void @ShutdownXLOG(i32 noundef %0, i64 noundef %1) #0 {
  %3 = alloca i32, align 4
  %4 = alloca i64, align 8
  store i32 %0, ptr %3, align 4
  store i64 %1, ptr %4, align 8
  %5 = load ptr, ptr @AuxProcessResourceOwner, align 8
  store ptr %5, ptr @CurrentResourceOwner, align 8
  br label %6

6:                                                ; preds = %2
  %7 = load i8, ptr @IsPostmasterEnvironment, align 1, !range !4, !noundef !5
  %8 = trunc i8 %7 to i1
  %9 = select i1 %8, i32 15, i32 18
  %10 = call i1 @llvm.is.constant.i32(i32 %9)
  br i1 %10, label %11, label %21

11:                                               ; preds = %6
  %12 = load i8, ptr @IsPostmasterEnvironment, align 1, !range !4, !noundef !5
  %13 = trunc i8 %12 to i1
  %14 = select i1 %13, i32 15, i32 18
  %15 = icmp sge i32 %14, 21
  br i1 %15, label %16, label %21

16:                                               ; preds = %11
  %17 = load i8, ptr @IsPostmasterEnvironment, align 1, !range !4, !noundef !5
  %18 = trunc i8 %17 to i1
  %19 = select i1 %18, i32 15, i32 18
  %20 = call zeroext i1 @errstart_cold(i32 noundef %19, ptr noundef null) #17
  br i1 %20, label %26, label %28

21:                                               ; preds = %11, %6
  %22 = load i8, ptr @IsPostmasterEnvironment, align 1, !range !4, !noundef !5
  %23 = trunc i8 %22 to i1
  %24 = select i1 %23, i32 15, i32 18
  %25 = call zeroext i1 @errstart(i32 noundef %24, ptr noundef null)
  br i1 %25, label %26, label %28

26:                                               ; preds = %21, %16
  %27 = call i32 (ptr, ...) @errmsg(ptr noundef @.str.59)
  call void @errfinish(ptr noundef @.str.14, i32 noundef 6636, ptr noundef @__func__.ShutdownXLOG)
  br label %28

28:                                               ; preds = %26, %21, %16
  %29 = load i8, ptr @IsPostmasterEnvironment, align 1, !range !4, !noundef !5
  %30 = trunc i8 %29 to i1
  %31 = select i1 %30, i32 15, i32 18
  %32 = call i1 @llvm.is.constant.i32(i32 %31)
  br i1 %32, label %33, label %39

33:                                               ; preds = %28
  %34 = load i8, ptr @IsPostmasterEnvironment, align 1, !range !4, !noundef !5
  %35 = trunc i8 %34 to i1
  %36 = select i1 %35, i32 15, i32 18
  %37 = icmp sge i32 %36, 21
  br i1 %37, label %38, label %39

38:                                               ; preds = %33
  unreachable

39:                                               ; preds = %33, %28
  br label %40

40:                                               ; preds = %39
  call void @WalSndInitStopping()
  call void @WalSndWaitStopping()
  %41 = call zeroext i1 @RecoveryInProgress()
  br i1 %41, label %42, label %44

42:                                               ; preds = %40
  %43 = call zeroext i1 @CreateRestartPoint(i32 noundef 5)
  br label %51

44:                                               ; preds = %40
  %45 = load i32, ptr @XLogArchiveMode, align 4
  %46 = icmp sgt i32 %45, 0
  br i1 %46, label %47, label %49

47:                                               ; preds = %44
  %48 = call i64 @RequestXLogSwitch(i1 noundef zeroext false)
  br label %49

49:                                               ; preds = %47, %44
  %50 = call zeroext i1 @CreateCheckPoint(i32 noundef 5)
  br label %51

51:                                               ; preds = %49, %42
  ret void
}