; Function Attrs: nounwind uwtable
define dso_local void @ShutdownXLOG(i32 noundef %0, i64 noundef %1) local_unnamed_addr #0 {
  %3 = load ptr, ptr @AuxProcessResourceOwner, align 8
  store ptr %3, ptr @CurrentResourceOwner, align 8
  %4 = load i8, ptr @IsPostmasterEnvironment, align 1, !range !4, !noundef !5
  %5 = trunc nuw i8 %4 to i1
  %6 = select i1 %5, i32 15, i32 18
  %7 = tail call zeroext i1 @errstart(i32 noundef %6, ptr noundef null) #26
  br i1 %7, label %8, label %10

8:                                                ; preds = %2
  %9 = tail call i32 (ptr, ...) @errmsg(ptr noundef nonnull @.str.59) #26
  tail call void @errfinish(ptr noundef nonnull @.str.14, i32 noundef 6636, ptr noundef nonnull @__func__.ShutdownXLOG) #26
  br label %10

10:                                               ; preds = %8, %2
  tail call void @WalSndInitStopping() #26
  tail call void @WalSndWaitStopping() #26
  %11 = load i8, ptr @LocalRecoveryInProgress, align 1, !range !4, !noundef !5
  %12 = trunc nuw i8 %11 to i1
  br i1 %12, label %RecoveryInProgress.exit, label %RecoveryInProgress.exit.thread

RecoveryInProgress.exit:                          ; preds = %10
  %13 = load ptr, ptr @XLogCtl, align 8
  %14 = getelementptr inbounds nuw i8, ptr %13, i64 324
  %15 = load volatile i32, ptr %14, align 4
  %16 = icmp ne i32 %15, 2
  %17 = zext i1 %16 to i8
  store i8 %17, ptr @LocalRecoveryInProgress, align 1
  br i1 %16, label %18, label %RecoveryInProgress.exit.thread

18:                                               ; preds = %RecoveryInProgress.exit
  %19 = tail call zeroext i1 @CreateRestartPoint(i32 noundef 5)
  br label %26

RecoveryInProgress.exit.thread:                   ; preds = %10, %RecoveryInProgress.exit
  %20 = load i32, ptr @XLogArchiveMode, align 4
  %21 = icmp sgt i32 %20, 0
  br i1 %21, label %22, label %24

22:                                               ; preds = %RecoveryInProgress.exit.thread
  tail call void @XLogBeginInsert() #26
  %23 = tail call i64 @XLogInsert(i8 noundef zeroext 0, i8 noundef zeroext 64) #26
  br label %24

24:                                               ; preds = %22, %RecoveryInProgress.exit.thread
  %25 = tail call zeroext i1 @CreateCheckPoint(i32 noundef 5)
  br label %26

26:                                               ; preds = %24, %18
  ret void
}